(iBPNN
Bpnn
p0
(dp1
S'input_num'
p2
I18
sS'bpnn'
p3
(lp4
(lp5
(iBPNN
BpnnNode
p6
(dp7
S'old_weight'
p8
(lp9
F1.2964686732759902
aF0.3073749113367128
aF-1.6511616005724905
aF-0.16942093332162705
aF0.9832364469503205
aF-0.7982933039313643
aF1.6217009428227713
aF-3.1937906720358913
aF-0.2729323140800501
aF-7.423155144742038
aF1.574723703561829
aF3.986613535594795
aF-1.0178921541217394
aF4.095494318784902
aF-3.123289332447767
aF3.2276604022985103
aF-4.153965206846106
aF0.7857885260457502
aF-0.053963015720005114
asS'input'
p10
(lp11
F0.21052631578910433
aF0.35087719298184056
aF0.4385964912273007
aF0.199999999998
aF0.299999999997
aF0.499999999995
aF0.3253012048188852
aF0.27710843373460586
aF0.3975903614453041
aF0.45454545454132234
aF0.36363636363305785
aF0.18181818181652892
aF0.30769230769171596
aF0.5576923076912352
aF0.13461538461512573
aF0.45454545454132234
aF0.45454545454132234
aF0.09090909090826446
aF1.0
asS'output'
p12
F0.13272315976753252
sS'weight'
p13
(lp14
F1.2964483026509415
aF0.307396699599872
aF-1.6510917680291246
aF-0.16944430425977033
aF0.9832512788274154
aF-0.7982135146888399
aF1.621723372025658
aF-3.193776075570744
aF-0.2728980895666077
aF-7.423122081622078
aF1.5747561851276326
aF3.986619241090507
aF-1.0178652738174523
aF4.095525428033855
aF-3.1232760718195305
aF3.2276976798775827
aF-4.153937218632414
aF0.7857945104344624
aF-0.05389176553852869
asS'delta'
p15
F0.00040317463899188996
sba(iBPNN
BpnnNode
p16
(dp17
g8
(lp18
F0.6690071607321172
aF0.2507162003771117
aF-0.831840889644005
aF0.03310207190245424
aF-0.35863786119956503
aF0.3962666199677651
aF0.08633931099451064
aF-0.04021093896765455
aF-0.241847568024701
aF-1.145309296257758
aF0.5494388514154367
aF0.5772621717947211
aF-0.4565062314505043
aF0.7638477663686114
aF-0.2358740679222981
aF-0.5074976842817462
aF-0.7259589731227885
aF1.3393300288494019
aF0.036731490314893915
asg10
(lp19
F0.21052631578910433
aF0.35087719298184056
aF0.4385964912273007
aF0.199999999998
aF0.299999999997
aF0.499999999995
aF0.3253012048188852
aF0.27710843373460586
aF0.3975903614453041
aF0.45454545454132234
aF0.36363636363305785
aF0.18181818181652892
aF0.30769230769171596
aF0.5576923076912352
aF0.13461538461512573
aF0.45454545454132234
aF0.45454545454132234
aF0.09090909090826446
aF1.0
asg12
F0.38175937869391213
sg13
(lp20
F0.6690234637666477
aF0.25073882511212864
aF-0.8318093742873244
aF0.0331164421368847
aF-0.3586179605512714
aF0.3963027922112685
aF0.08636322931745209
aF-0.04019185169500075
aF-0.24182013049406811
aF-1.1452763474127916
aF0.5494620507554113
aF0.5772764667360076
aF-0.4564848021378296
aF0.7638846564529733
aF-0.2358619441931066
aF-0.5074667889530058
aF-0.725926076387674
aF1.3393366799117747
aF0.03680193344112213
asg15
F0.00015203796865383105
sba(iBPNN
BpnnNode
p21
(dp22
g8
(lp23
F0.8270749916866318
aF-0.32903084334444915
aF-1.737973029580473
aF-2.252477438901612
aF-0.8993199279419127
aF1.8252639496030607
aF1.0982739418145122
aF-1.673906539350843
aF0.8196692329995828
aF5.4391625696333055
aF-9.362661566572832
aF4.171547802719373
aF-7.171282776784811
aF-3.6920525603525243
aF9.778909877608994
aF-1.4726662474936247
aF0.99585801214359
aF-0.5951210966705994
aF-1.1967570257029814
asg10
(lp24
F0.21052631578910433
aF0.35087719298184056
aF0.4385964912273007
aF0.199999999998
aF0.299999999997
aF0.499999999995
aF0.3253012048188852
aF0.27710843373460586
aF0.3975903614453041
aF0.45454545454132234
aF0.36363636363305785
aF0.18181818181652892
aF0.30769230769171596
aF0.5576923076912352
aF0.13461538461512573
aF0.45454545454132234
aF0.45454545454132234
aF0.09090909090826446
aF1.0
asg12
F0.007522410559778844
sg13
(lp25
F0.8271008326705304
aF-0.3290189752035077
aF-1.7379472668288063
aF-2.2524577377303054
aF-0.8993054210776176
aF1.8252932134439654
aF1.0982999388621448
aF-1.6738907441090547
aF0.8196909125866687
aF5.439196455021101
aF-9.362652773273496
aF4.171568595908749
aF-7.1712657004331115
aF-3.6920269159586194
aF9.778930628739896
aF-1.47264299042857
aF0.9958934207615262
aF-0.5951162904770837
aF-1.1966935538264747
asg15
F4.877349446868753e-06
sba(iBPNN
BpnnNode
p26
(dp27
g8
(lp28
F1.2697114592661298
aF4.457775039929443
aF-7.236445108247596
aF5.1400644519431475
aF1.8741577045020308
aF-8.324335610706449
aF-2.3251028494941433
aF3.0750537257480697
aF-1.1140906708576799
aF-1.5145992423749721
aF4.354990548839809
aF-3.131880801838026
aF3.881896458028954
aF-3.6830461378732307
aF-1.7304173647828793
aF3.8698290509196247
aF-6.215339699149329
aF0.9208439529544254
aF-1.4139286979104495
asg10
(lp29
F0.21052631578910433
aF0.35087719298184056
aF0.4385964912273007
aF0.199999999998
aF0.299999999997
aF0.499999999995
aF0.3253012048188852
aF0.27710843373460586
aF0.3975903614453041
aF0.45454545454132234
aF0.36363636363305785
aF0.18181818181652892
aF0.30769230769171596
aF0.5576923076912352
aF0.13461538461512573
aF0.45454545454132234
aF0.45454545454132234
aF0.09090909090826446
aF1.0
asg12
F0.0005960859683098986
sg13
(lp30
F1.2697385155254013
aF4.457792285471857
aF-7.236445645773093
aF5.14009230296621
aF1.8741742398709507
aF-8.324336232822242
aF-2.325088336719868
aF3.075068507326485
aF-1.1140762009341814
aF-1.514579742622061
aF4.355003395824461
aF-3.1318693842994
aF3.8819074374923837
aF-3.6830171065466586
aF-1.730413611296692
aF3.8698465990318156
aF-6.2153177167179905
aF0.9208481866870851
aF-1.4138849336342605
asg15
F-2.238454608886602e-06
sba(iBPNN
BpnnNode
p31
(dp32
g8
(lp33
F-1.9090405305980331
aF-2.8659025754130547
aF5.112470985491391
aF0.0009527097237374744
aF-0.6755974514875297
aF1.175417581747602
aF0.6412874770229977
aF-4.416336788167299
aF2.0790598229535044
aF-0.2766315787897761
aF-3.265511590026834
aF1.8822272238592654
aF1.3093662072795575
aF2.890733202600175
aF-3.799400443852884
aF7.976773330305386
aF2.620612826136687
aF-10.210616104624387
aF0.46889124893323586
asg10
(lp34
F0.21052631578910433
aF0.35087719298184056
aF0.4385964912273007
aF0.199999999998
aF0.299999999997
aF0.499999999995
aF0.3253012048188852
aF0.27710843373460586
aF0.3975903614453041
aF0.45454545454132234
aF0.36363636363305785
aF0.18181818181652892
aF0.30769230769171596
aF0.5576923076912352
aF0.13461538461512573
aF0.45454545454132234
aF0.45454545454132234
aF0.09090909090826446
aF1.0
asg12
F0.9973264301692305
sg13
(lp35
F-1.9090468325617735
aF-2.8659066995962412
aF5.112468256188724
aF0.0009471355035124133
aF-0.6756008068686093
aF1.1754133558993136
aF0.6412827595174263
aF-4.416340799094783
aF2.079055395936966
aF-0.2766378030652157
aF-3.2655153622103468
aF1.8822240648686244
aF1.3093623888551766
aF2.89072705749973
aF-3.7994036357776517
aF7.976768681925823
aF2.6206070908892767
aF-10.210618876447008
aF0.4688780934836425
asg15
F-4.0578592219658445e-06
sba(iBPNN
BpnnNode
p36
(dp37
g8
(lp38
F-3.768229629753361
aF0.4810394508406898
aF3.2216079607611006
aF1.3225854407383855
aF0.9406664545480856
aF-2.2975104415280976
aF-0.06061096325878743
aF-7.154180955403768
aF1.1947988371500822
aF0.09828043669318082
aF-6.26765495298312
aF0.030354076674256887
aF6.124982434144159
aF0.43932498369679607
aF-6.5890087937527895
aF9.630979168276843
aF-0.34748337913319294
aF-9.273256370387267
aF-0.04536034640220181
asg10
(lp39
F0.21052631578910433
aF0.35087719298184056
aF0.4385964912273007
aF0.199999999998
aF0.299999999997
aF0.499999999995
aF0.3253012048188852
aF0.27710843373460586
aF0.3975903614453041
aF0.45454545454132234
aF0.36363636363305785
aF0.18181818181652892
aF0.30769230769171596
aF0.5576923076912352
aF0.13461538461512573
aF0.45454545454132234
aF0.45454545454132234
aF0.09090909090826446
aF1.0
asg12
F0.7320818525375534
sg13
(lp40
F-3.7682102500707852
aF0.4811306381103974
aF3.2217582584227333
aF1.3226013081131751
aF0.94073976335113
aF-2.2973387530920175
aF-0.06052811615882053
aF-7.154112962254005
aF1.1949088615142678
aF0.09839841725027088
aF-6.267550529498058
aF0.03039253724601747
aF6.125067849171589
aF0.43946483708977335
aF-6.58897319755928
aF9.631103597691416
aF-0.3473705896212352
aF-9.273232724699884
aF-0.04509948178828557
asg15
F0.0008967841519320381
sbaa(lp41
(iBPNN
BpnnNode
p42
(dp43
g8
(lp44
F10.183596881133182
aF0.05941660708676333
aF-5.796419158806477
aF-9.43113791739036
aF2.349372115769734
aF10.537281184673382
aF-6.992986895208368
asg10
(lp45
F0.13272315976753252
aF0.38175937869391213
aF0.007522410559778844
aF0.0005960859683098986
aF0.9973264301692305
aF0.7320818525375534
aF1.0
asg12
F0.9877437154661899
sg13
(lp46
F10.183587425617247
aF0.0594207548035566
aF-5.796423292803882
aF-9.431164860025879
aF2.3493977097008583
aF10.537312436022374
aF-6.992964672111893
asg15
F0.00014901325806390985
sba(iBPNN
BpnnNode
p47
(dp48
g8
(lp49
F-8.513600000865855
aF-2.7598254921755205
aF-6.743439634815622
aF10.298485013687792
aF8.255769216950869
aF-12.914106910591885
aF-0.7150035286729587
asg10
(lp50
F0.13272315976753252
aF0.38175937869391213
aF0.007522410559778844
aF0.0005960859683098986
aF0.9973264301692305
aF0.7320818525375534
aF1.0
asg12
F0.015309275645254012
sg13
(lp51
F-8.51361078248874
aF-2.759861209777084
aF-6.7434428909729816
aF10.298487621475786
aF8.255677700958422
aF-12.914174279856793
aF-0.7150972628946847
asg15
F-0.0002320938321758798
sba(iBPNN
BpnnNode
p52
(dp53
g8
(lp54
F-2.2390874782793864
aF1.1839859479618373
aF10.95786720562851
aF-8.588749338798303
aF-10.08464352500475
aF-0.654053820990011
aF4.137696644875346
asg10
(lp55
F0.13272315976753252
aF0.38175937869391213
aF0.007522410559778844
aF0.0005960859683098986
aF0.9973264301692305
aF0.7320818525375534
aF1.0
asg12
F0.002093983674699778
sg13
(lp56
F-2.239086796170803
aF1.1839975161564074
aF10.95789808577372
aF-8.588749309059963
aF-10.084608871727465
aF-0.6540380745528414
aF4.137731930387511
asg15
F-4.375685366040312e-06
sbaasb.