(iBPNN
Bpnn
p0
(dp1
S'input_num'
p2
I18
sS'bpnn'
p3
(lp4
(lp5
(iBPNN
BpnnNode
p6
(dp7
S'old_weight'
p8
(lp9
F-4.637481347793762
aF5.832343680543815
aF-1.1048391471641619
aF-2.2096066743748763
aF2.6105115939551538
aF-0.2741310233769727
aF-2.837121047151564
aF3.378823320263225
aF-5.138518166579447
aF-5.807251020132768
aF6.198336498506888
aF-4.879996662328724
aF0.4969140030189875
aF7.133811737505489
aF-7.466190114403649
aF0.8657936087409085
aF2.7929858689094833
aF-3.5522610765965825
aF0.08418953806241558
asS'input'
p10
(lp11
F0.4040404040399959
aF0.29292929292899705
aF0.30303030302999695
aF0.33333333333055554
aF0.24999999999791667
aF0.41666666666319446
aF0.3052917232021295
aF0.39891451831744923
aF0.2957937584802855
aF0.28999999999971
aF0.47999999999952
aF0.22999999999977
aF0.3818181818178347
aF0.3818181818178347
aF0.23636363636342148
aF0.4374999999972657
aF0.3749999999976563
aF0.18749999999882816
aF1.0
asS'output'
p12
F0.605456644232577
sS'weight'
p13
(lp14
F-4.637108582604652
aF5.832613879490093
aF-1.1045595412922886
aF-2.2092990822359044
aF2.610742184854451
aF-0.2737466364079889
aF-2.8368393615104606
aF3.379191306899166
aF-5.138245268849232
aF-5.806983437065868
aF6.198779274877862
aF-4.87978445175934
aF0.497266237502223
aF7.134163991751079
aF-7.465972033125214
aF0.8661972288238337
aF2.7933318412662467
aF-3.552088099029016
aF0.08511210806967633
asS'delta'
p15
F0.0023059090510467234
sba(iBPNN
BpnnNode
p16
(dp17
g8
(lp18
F4.703292672207507
aF0.08269707042185193
aF-4.627692079345322
aF2.794851449080277
aF-4.616565898157954
aF2.09807096226094
aF2.229532349633517
aF2.4505031731440354
aF-7.465431618331448
aF1.3376900418153013
aF-0.526319100863277
aF-3.7974908145014554
aF2.092023037754864
aF2.6179979511495723
aF-4.478570229300964
aF-0.7407469006505323
aF-0.4736424481200917
aF1.4737833487764376
aF0.26031313352749097
asg10
(lp19
F0.4040404040399959
aF0.29292929292899705
aF0.30303030302999695
aF0.33333333333055554
aF0.24999999999791667
aF0.41666666666319446
aF0.3052917232021295
aF0.39891451831744923
aF0.2957937584802855
aF0.28999999999971
aF0.47999999999952
aF0.22999999999977
aF0.3818181818178347
aF0.3818181818178347
aF0.23636363636342148
aF0.4374999999972657
aF0.3749999999976563
aF0.18749999999882816
aF1.0
asg12
F0.6593748468916081
sg13
(lp20
F4.703288634388279
aF0.08272873139993538
aF-4.627714898032194
aF2.794810435036001
aF-4.6165327286098945
aF2.0980836112291423
aF2.2295135725166997
aF2.450529849633967
aF-7.465434713232577
aF1.3376680338888685
aF-0.5262812873799829
aF-3.797501815586332
aF2.0920370350651205
aF2.617999707182607
aF-4.478581178172271
aF-0.7407420393809494
aF-0.4736458954672709
aF1.473786739326019
aF0.2603179379994757
asg15
F0.0003321416869819289
sba(iBPNN
BpnnNode
p21
(dp22
g8
(lp23
F-3.56433484236323
aF4.539450653608087
aF-0.8991983670091688
aF-2.1685677449319236
aF2.326608170066999
aF-0.24840547560512127
aF-1.9049583400387236
aF2.6811103283000057
aF-4.189256741274981
aF-4.245665503546152
aF4.4257187346194256
aF-3.5121015808504668
aF0.3355611357215985
aF5.363220143520231
aF-5.681412021100066
aF0.6467220693825398
aF1.7519544970906913
aF-2.5816388995787976
aF-0.01079012296818873
asg10
(lp24
F0.4040404040399959
aF0.29292929292899705
aF0.30303030302999695
aF0.33333333333055554
aF0.24999999999791667
aF0.41666666666319446
aF0.3052917232021295
aF0.39891451831744923
aF0.2957937584802855
aF0.28999999999971
aF0.47999999999952
aF0.22999999999977
aF0.3818181818178347
aF0.3818181818178347
aF0.23636363636342148
aF0.4374999999972657
aF0.3749999999976563
aF0.18749999999882816
aF1.0
asg12
F0.4966960404973063
sg13
(lp25
F-3.5640557815137157
aF4.539652806768952
aF-0.8989889762838427
aF-2.168337338783732
aF2.326780667822653
aF-0.24811777477326616
aF-1.9047474070497428
aF2.6813857018285536
aF-4.189052443056805
aF-4.245465115896053
aF4.426050054743088
aF-3.5119426838885244
aF0.33582476315058934
aF5.363483829703858
aF-5.681248729976977
aF0.6470241962105944
aF1.7522134994678926
aF-2.5815094240483507
aF-0.010099518232482028
asg15
F0.0017249778977033701
sba(iBPNN
BpnnNode
p26
(dp27
g8
(lp28
F-3.1555111916639507
aF2.96467388280801
aF-0.3157608406485423
aF-4.53002283876523
aF0.8144148002298709
aF3.083573661048729
aF2.455469094692502
aF-4.375249534345362
aF0.3185540573222195
aF1.2109277679804777
aF-4.887333071292612
aF2.069811758407733
aF2.486680511071052
aF-4.098687277400072
aF1.075414577485911
aF3.570831427479534
aF-1.089739691754321
aF-3.082158482894245
aF-0.5822813500110555
asg10
(lp29
F0.4040404040399959
aF0.29292929292899705
aF0.30303030302999695
aF0.33333333333055554
aF0.24999999999791667
aF0.41666666666319446
aF0.3052917232021295
aF0.39891451831744923
aF0.2957937584802855
aF0.28999999999971
aF0.47999999999952
aF0.22999999999977
aF0.3818181818178347
aF0.3818181818178347
aF0.23636363636342148
aF0.4374999999972657
aF0.3749999999976563
aF0.18749999999882816
aF1.0
asg12
F0.035156766922120865
sg13
(lp30
F-3.155549094838046
aF2.964654248660337
aF-0.3157937614089054
aF-4.530062662844513
aF0.8143994373075979
aF3.0835383899681537
aF2.4554368897424736
aF-4.375280008210767
aF0.3185262780555235
aF1.2108962273024244
aF-4.887368451759996
aF2.0697882214710415
aF2.486648707405689
aF-4.098721859713488
aF1.0753905053825588
aF3.570792443549633
aF-1.089774832703253
aF-3.0821748160975435
aF-0.5823718080931873
asg15
F-0.0001536683070407065
sba(iBPNN
BpnnNode
p31
(dp32
g8
(lp33
F-0.9512020837602794
aF-6.1375564451879
aF4.885052905600232
aF0.4803716549758699
aF-2.8696800411522063
aF0.23732458888338584
aF1.9029483381727972
aF-4.221157882080005
aF5.457369016597172
aF1.7177758876126272
aF-5.116796822303706
aF6.576373312960364
aF-6.835315161370328
aF0.2525270874325991
aF4.432236322511989
aF-4.926503914264603
aF0.6814396786475185
aF2.1605704638824865
aF-2.18467524568059
asg10
(lp34
F0.4040404040399959
aF0.29292929292899705
aF0.30303030302999695
aF0.33333333333055554
aF0.24999999999791667
aF0.41666666666319446
aF0.3052917232021295
aF0.39891451831744923
aF0.2957937584802855
aF0.28999999999971
aF0.47999999999952
aF0.22999999999977
aF0.3818181818178347
aF0.3818181818178347
aF0.23636363636342148
aF0.4374999999972657
aF0.3749999999976563
aF0.18749999999882816
aF1.0
asg12
F0.0019480952943986703
sg13
(lp35
F-0.951124092634138
aF-6.137545764134769
aF4.885137668671729
aF0.4804859933021923
aF-2.869679077910022
aF0.23738272256564708
aF1.9030281180569437
aF-4.221121510337204
aF5.457426300220995
aF1.7178572145535331
aF-5.116760604024497
aF6.576429202991018
aF-6.83526498557352
aF0.2525935008353212
aF4.432293168563229
aF-4.92643157595703
aF0.6815117771461403
aF2.1605994623270597
aF-2.18450181042982
asg15
F9.572021374446662e-06
sba(iBPNN
BpnnNode
p36
(dp37
g8
(lp38
F-1.5771064493030147
aF-0.09953267398909381
aF2.9004158323600504
aF-2.4358287759364092
aF-0.5824099737237662
aF4.373419495597991
aF0.9264207910402668
aF-1.2570529848699195
aF-3.075694681392226
aF0.7654026120258256
aF-1.6811646407535648
aF-2.5850316404503606
aF6.249692352963843
aF-0.978748856702264
aF-3.974060027430711
aF4.060336406582803
aF3.870227097326704
aF-6.645407255932581
aF1.3636525713122802
asg10
(lp39
F0.4040404040399959
aF0.29292929292899705
aF0.30303030302999695
aF0.33333333333055554
aF0.24999999999791667
aF0.41666666666319446
aF0.3052917232021295
aF0.39891451831744923
aF0.2957937584802855
aF0.28999999999971
aF0.47999999999952
aF0.22999999999977
aF0.3818181818178347
aF0.3818181818178347
aF0.23636363636342148
aF0.4374999999972657
aF0.3749999999976563
aF0.18749999999882816
aF1.0
asg12
F0.9603517049078545
sg13
(lp40
F-1.5771938265801515
aF-0.0995786021706817
aF2.9003403207906313
aF-2.4359198527750556
aF-0.5824460745019187
aF4.373337856186648
aF0.9263468500931037
aF-1.2571238218839622
aF-3.0757587204591643
aF0.7653302698838931
aF-1.6812470111579656
aF-2.5850857449321714
aF6.249618714469973
aF-0.9788286625494125
aF-3.9741154001178365
aF4.060246389521406
aF3.870146106498269
aF-6.645445065070892
aF1.363443754284136
asg15
F-0.0003610095753907221
sbaa(lp41
(iBPNN
BpnnNode
p42
(dp43
g8
(lp44
F-9.85155519343899
aF1.230099767455847
aF-7.094323290513158
aF5.782910597380181
aF-10.705432375077647
aF10.692963357205926
aF-5.462991759900454
asg10
(lp45
F0.605456644232577
aF0.6593748468916081
aF0.4966960404973063
aF0.035156766922120865
aF0.0019480952943986703
aF0.9603517049078545
aF1.0
asg12
F0.02436983662074884
sg13
(lp46
F-9.851698605694928
aF1.2298878400202367
aF-7.094441044566377
aF5.7828996486675015
aF-10.705499717160466
aF10.69266296441346
aF-5.463307201509064
asg15
F-0.0005927090485446121
sba(iBPNN
BpnnNode
p47
(dp48
g8
(lp49
F11.354984507414855
aF6.582955230443542
aF8.037259828452527
aF-3.2849953620889742
aF-4.23205876843737
aF-9.390167944571326
aF-2.0815038453935277
asg10
(lp50
F0.605456644232577
aF0.6593748468916081
aF0.4966960404973063
aF0.035156766922120865
aF0.0019480952943986703
aF0.9603517049078545
aF1.0
asg12
F0.9817461586722311
sg13
(lp51
F11.355065633806783
aF6.583043635069933
aF8.037326385195708
aF-3.284990656378177
aF-4.2320588968009245
aF-9.390039117305806
aF-2.0813700949033715
asg15
F0.0003353599370779453
sba(iBPNN
BpnnNode
p52
(dp53
g8
(lp54
F-4.833314859679589
aF-10.163207837480014
aF-3.1792418939376814
aF-8.689035731516787
aF10.04489630394196
aF-2.4099317869729964
aF5.015954650696372
asg10
(lp55
F0.605456644232577
aF0.6593748468916081
aF0.4966960404973063
aF0.035156766922120865
aF0.0019480952943986703
aF0.9603517049078545
aF1.0
asg12
F0.00015206373005664843
sg13
(lp56
F-4.833314844976137
aF-10.163171276576433
aF-3.1792418177778328
aF-8.689034014000613
aF10.044940288783355
aF-2.4098839831359773
aF5.016006175183991
asg15
F-2.3342865740055117e-08
sbaasb.