(iBPNN
Bpnn
p0
(dp1
S'input_num'
p2
I18
sS'bpnn'
p3
(lp4
(lp5
(iBPNN
BpnnNode
p6
(dp7
S'old_weight'
p8
(lp9
F-1.7315070193363087
aF2.505416745039693
aF-1.4636511325607524
aF0.5466610910572048
aF1.9698886310417496
aF-3.2767309519903
aF-1.470887796173213
aF1.3087010524114642
aF-0.17392210953753878
aF1.010681381514818
aF0.44992000645012803
aF-1.7708991284286622
aF1.192508016240474
aF-2.8588709820561284
aF0.9817893084103558
aF1.017302530907185
aF-1.3841053423619694
aF-0.24874726690220622
aF-0.732973655498951
asS'input'
p10
(lp11
F0.40624999999936523
aF0.17187499999973144
aF0.4218749999993408
aF0.3076923076899408
aF0.23076923076745562
aF0.46153846153491124
aF0.41560509554133507
aF0.24363057324836884
aF0.3407643312101368
aF0.5394736842098165
aF0.11842105263142312
aF0.3421052631574446
aF0.26470588235274656
aF0.40441176470558504
aF0.3308823529409332
aF0.3684210526296399
aF0.5789473684180056
aF0.05263157894709142
aF1.0
asS'output'
p12
F0.021306990014863074
sS'weight'
p13
(lp14
F-1.7315156769144326
aF2.5054119706600138
aF-1.4636585533206319
aF0.5466551528949968
aF1.9698825200278696
aF-3.2767397555318944
aF-1.4708957151374296
aF1.308695294300349
aF-0.1739292851798898
aF1.0106716820459647
aF0.44991611175106033
aF-1.770906386978424
aF1.1925025023207734
aF-2.8588787703613976
aF0.9817817579176428
aF1.0172955701304993
aF-1.3841156761142046
aF-0.24875082509096788
aF-0.7329945082166337
asS'delta'
p15
F-3.1335893514737206e-05
sba(iBPNN
BpnnNode
p16
(dp17
g8
(lp18
F0.3052318982186029
aF0.07568576849277499
aF-1.1028683854390875
aF0.3429993182400491
aF-0.910308010821102
aF-0.13472770652654065
aF-1.22287805174943
aF3.4140448896240723
aF-1.4131003724557374
aF2.390359019931832
aF2.8480124387088175
aF-4.637208511649685
aF3.528044486068466
aF-1.7811386842992034
aF-2.5036634126546207
aF-6.621541016179168
aF1.0142340237938696
aF4.918299690623908
aF-0.693308816136113
asg10
(lp19
F0.40624999999936523
aF0.17187499999973144
aF0.4218749999993408
aF0.3076923076899408
aF0.23076923076745562
aF0.46153846153491124
aF0.41560509554133507
aF0.24363057324836884
aF0.3407643312101368
aF0.5394736842098165
aF0.11842105263142312
aF0.3421052631574446
aF0.26470588235274656
aF0.40441176470558504
aF0.3308823529409332
aF0.3684210526296399
aF0.5789473684180056
aF0.05263157894709142
aF1.0
asg12
F0.02891778374972928
sg13
(lp20
F0.3052651941604593
aF0.07570247036928159
aF-1.102838990341293
aF0.34302485616730605
aF-0.9102892239464693
aF-0.1346926384122734
aF-1.222847047037107
aF3.414066863895291
aF-1.4130739585231213
aF2.390397256525839
aF2.8480282600950666
aF-4.6371831767137826
aF3.5280671255779184
aF-1.7811084865946436
aF-2.5036368569524754
aF-6.621515126690413
aF1.0142738020053972
aF4.9183134158397825
aF-0.6932294232199554
asg15
F0.00012560818705518114
sba(iBPNN
BpnnNode
p21
(dp22
g8
(lp23
F-0.5338570012218099
aF-2.217017608175144
aF2.0237461868884905
aF2.1600064008091935
aF2.466911898667367
aF-5.30441819113124
aF0.5101458185124917
aF-5.664979637742212
aF0.3565310512761262
aF-0.7848977072859874
aF-6.503291077023603
aF2.408735470797745
aF5.742005580056221
aF0.21935850111256497
aF-6.591693236541395
aF8.861392373218969
aF1.4795273404621851
aF-10.92877422530082
aF-0.7123356396340346
asg10
(lp24
F0.40624999999936523
aF0.17187499999973144
aF0.4218749999993408
aF0.3076923076899408
aF0.23076923076745562
aF0.46153846153491124
aF0.41560509554133507
aF0.24363057324836884
aF0.3407643312101368
aF0.5394736842098165
aF0.11842105263142312
aF0.3421052631574446
aF0.26470588235274656
aF0.40441176470558504
aF0.3308823529409332
aF0.3684210526296399
aF0.5789473684180056
aF0.05263157894709142
aF1.0
asg12
F0.47164765587821555
sg13
(lp25
F-0.5338876705435515
aF-2.21703053831919
aF2.0237142596717237
aF2.1599831385134927
aF2.4668945043585797
aF-5.304453061209306
aF0.5101144033325247
aF-5.664998015580163
aF0.3565053176114891
aF-0.7849384961193755
aF-6.503299965832504
aF2.4087096217574784
aF5.741985589148405
aF0.2193279182277674
aF-6.591718189431337
aF8.861364521795549
aF1.4794835322973092
aF-10.92877809239508
aF-0.7124111663165894
asg15
F-0.0001897674958394693
sba(iBPNN
BpnnNode
p26
(dp27
g8
(lp28
F-4.826911652851579
aF5.1964094944027615
aF0.23177826686634304
aF1.5065219081275443
aF-0.9052945548088375
aF0.13471107652640418
aF-2.6787791313132936
aF2.607663449480215
aF1.5687037377790318
aF10.261121902043099
aF-5.433342553284392
aF-3.2434325525837644
aF1.9260899316164573
aF-4.779373019924145
aF3.5196300837275807
aF5.471941188670809
aF3.5522875918123216
aF-8.347188139368987
aF0.7392170942074102
asg10
(lp29
F0.40624999999936523
aF0.17187499999973144
aF0.4218749999993408
aF0.3076923076899408
aF0.23076923076745562
aF0.46153846153491124
aF0.41560509554133507
aF0.24363057324836884
aF0.3407643312101368
aF0.5394736842098165
aF0.11842105263142312
aF0.3421052631574446
aF0.26470588235274656
aF0.40441176470558504
aF0.3308823529409332
aF0.3684210526296399
aF0.5789473684180056
aF0.05263157894709142
aF1.0
asg12
F0.9993248554471864
sg13
(lp30
F-4.826921390804213
aF5.196401984920608
aF0.23177208906940597
aF1.5065163102388353
aF-0.9053049661140374
aF0.13470366048858945
aF-2.6787864052963757
aF2.6076554685189866
aF1.5686955674916188
aF10.26111480749109
aF-5.4333497885844215
aF-3.24344164796345
aF1.9260838138378549
aF-4.7793811494863405
aF3.5196209058366548
aF5.471934844074651
aF3.5522786294903623
aF-8.347196257682594
aF0.7391936689756865
asg15
F-1.5439489295996848e-06
sba(iBPNN
BpnnNode
p31
(dp32
g8
(lp33
F3.125261015415262
aF-0.14939222690101048
aF-4.115659602731383
aF-3.4292107378915477
aF-0.8476521838033105
aF3.1761808760311943
aF2.3636454187062945
aF-3.223250910810432
aF1.123871616002748
aF5.33458393886397
aF-9.30998913062351
aF4.072890648428091
aF-7.596714781029438
aF-3.7188990097941743
aF10.338813815633037
aF-2.0187748978594215
aF-0.3828321989057065
aF1.273774715355205
aF-1.0849415856269513
asg10
(lp34
F0.40624999999936523
aF0.17187499999973144
aF0.4218749999993408
aF0.3076923076899408
aF0.23076923076745562
aF0.46153846153491124
aF0.41560509554133507
aF0.24363057324836884
aF0.3407643312101368
aF0.5394736842098165
aF0.11842105263142312
aF0.3421052631574446
aF0.26470588235274656
aF0.40441176470558504
aF0.3308823529409332
aF0.3684210526296399
aF0.5789473684180056
aF0.05263157894709142
aF1.0
asg12
F0.8014545973516642
sg13
(lp35
F3.1253914118632844
aF-0.1493310883399114
aF-4.115534997636472
aF-3.4291153114684394
aF-0.8475753269585136
aF3.176324732867319
aF2.3637732144438726
aF-3.2231705695284814
aF1.1239796190872515
aF5.334748048925404
aF-9.309943726384903
aF4.0729972742320815
aF-7.596630634047934
aF-3.7187762534314985
aF10.33892305239289
aF-2.0186623894148825
aF-0.38266063353472934
aF1.2738067816437195
aF-1.0846254455229187
asg15
F0.0006583602413952905
sba(iBPNN
BpnnNode
p36
(dp37
g8
(lp38
F-1.767638161301633
aF0.542640340216897
aF2.1961719854267847
aF1.1737413568398962
aF1.0467353054180633
aF-1.3094569490800771
aF-0.9183635678279383
aF1.7193081833428918
aF-0.9982280504221627
aF-4.47296881707349
aF8.53689170537065
aF-4.450439220329008
aF7.161679215902534
aF2.7178135515449413
aF-8.909466216598027
aF3.7137547203864614
aF-1.1094714649654285
aF-1.5270283844678996
aF1.0725639922706114
asg10
(lp39
F0.40624999999936523
aF0.17187499999973144
aF0.4218749999993408
aF0.3076923076899408
aF0.23076923076745562
aF0.46153846153491124
aF0.41560509554133507
aF0.24363057324836884
aF0.3407643312101368
aF0.5394736842098165
aF0.11842105263142312
aF0.3421052631574446
aF0.26470588235274656
aF0.40441176470558504
aF0.3308823529409332
aF0.3684210526296399
aF0.5789473684180056
aF0.05263157894709142
aF1.0
asg12
F0.23804404098601362
sg13
(lp40
F-1.7677409130169088
aF0.542594081953207
aF2.196069410756008
aF1.1736650783308429
aF1.0466741521573677
aF-1.3095711019600693
aF-0.9184662898227396
aF1.71924529709242
aF-0.9983140268266324
aF-4.473100853732219
aF8.536858567016841
aF-4.450525629966212
aF7.161612748351302
aF2.7177135495537406
aF-8.909551331705336
aF3.7136637556937995
aF-1.1096126478261237
aF-1.527047821564284
aF1.0723124076208685
asg15
F-0.0005761633814371658
sbaa(lp41
(iBPNN
BpnnNode
p42
(dp43
g8
(lp44
F-3.62924670733805
aF-6.829402090895665
aF13.868254997846888
aF-10.63697619018243
aF-3.062523183219572
aF5.85687918963255
aF-0.47531003980526115
asg10
(lp45
F0.021306990014863074
aF0.02891778374972928
aF0.47164765587821555
aF0.9993248554471864
aF0.8014545973516642
aF0.23804404098601362
aF1.0
asg12
F0.0027339077058112084
sg13
(lp46
F-3.629246978148983
aF-6.82940437543732
aF13.868253582142328
aF-10.636980018737518
aF-3.0625256736263524
aF5.856875758168108
aF-0.4753159454477821
asg15
F-7.4881916026487895e-06
sba(iBPNN
BpnnNode
p47
(dp48
g8
(lp49
F2.532237933486913
aF-2.212422569861239
aF-13.01714865732817
aF12.859356491262096
aF-10.782168791906097
aF1.7807343619374496
aF-7.4397433576928655
asg10
(lp50
F0.021306990014863074
aF0.02891778374972928
aF0.47164765587821555
aF0.9993248554471864
aF0.8014545973516642
aF0.23804404098601362
aF1.0
asg12
F0.0001289182203992034
sg13
(lp51
F2.532235860172195
aF-2.2124351129330577
aF-13.017148696095179
aF12.85932966497687
aF-10.782191640051998
aF1.7807241056775691
aF-7.439772774948292
asg15
F-1.6662006932156293e-08
sba(iBPNN
BpnnNode
p52
(dp53
g8
(lp54
F-3.8210707020859824
aF11.047698744985487
aF-1.6432783894443965
aF-5.914877081075496
aF10.270367487472623
aF-7.821534330165299
aF3.962528857864324
asg10
(lp55
F0.021306990014863074
aF0.02891778374972928
aF0.47164765587821555
aF0.9993248554471864
aF0.8014545973516642
aF0.23804404098601362
aF1.0
asg12
F0.9798561874366422
sg13
(lp56
F-3.821065984602487
aF11.047707473255846
aF-1.643202824247059
aF-5.914711374475902
aF10.2704999287664
aF-7.821489771345909
aF3.9626993362899987
asg15
F0.00040034391636251213
sbaasb.