(iBPNN
Bpnn
p0
(dp1
S'input_num'
p2
I18
sS'bpnn'
p3
(lp4
(lp5
(iBPNN
BpnnNode
p6
(dp7
S'old_weight'
p8
(lp9
F8.141082579561123
aF-7.866528242709583
aF-1.6034760819977085
aF1.2445349983055243
aF2.798834252454315
aF-5.241185575920376
aF7.342745538735776
aF-1.4226331855233094
aF-7.362255451903802
aF6.421672026006712
aF-9.34313200846612
aF1.490010044429246
aF-2.6414408141269607
aF7.306313442798452
aF-5.893219252352559
aF6.743066418941991
aF-2.0885235950810292
aF-6.043813579244343
aF-1.3485533879144087
asS'input'
p10
(lp11
F0.40625
aF0.171875
aF0.421875
aF0.3076923076923077
aF0.23076923076923078
aF0.46153846153846156
aF0.3210227272727273
aF0.28125
aF0.3977272727272727
aF0.3023255813953488
aF0.32558139534883723
aF0.37209302325581395
aF0.2647058823529412
aF0.40441176470588236
aF0.33088235294117646
aF0.3684210526315789
aF0.5789473684210527
aF0.05263157894736842
aF1.0
asS'output'
p12
F0.15261116336767155
sS'weight'
p13
(lp14
F8.14111268261809
aF-7.866515398275731
aF-1.6034450427712377
aF1.2445578115329508
aF2.798851272117779
aF-5.241151422093978
aF7.342769306792757
aF-1.4226123438406288
aF-7.362226074926175
aF6.421694395073636
aF-9.343107953766628
aF1.4900376073801198
aF-2.6414210489886285
aF7.3063432767722025
aF-5.893194864747352
aF6.7430934685172765
aF-2.0884810680857027
aF-6.043809169097667
aF-1.3484794011971202
asS'delta'
p15
F0.00018116295677907032
sba(iBPNN
BpnnNode
p16
(dp17
g8
(lp18
F-0.5828621625363306
aF-0.03313276618401737
aF0.8035537063236712
aF0.21551592422534185
aF-0.9369948903255753
aF1.013949110737352
aF0.2886750362689579
aF0.2760279639312932
aF-0.3725035092230669
aF-0.16147462304346655
aF0.5897787371774728
aF-0.3697446599842992
aF0.7871131181548598
aF-0.07360027611611042
aF-0.4355604704462684
aF0.15390718427423342
aF-0.002215311049780767
aF0.15795139133834465
aF0.2602765333532981
asg10
(lp19
F0.40625
aF0.171875
aF0.421875
aF0.3076923076923077
aF0.23076923076923078
aF0.46153846153846156
aF0.3210227272727273
aF0.28125
aF0.3977272727272727
aF0.3023255813953488
aF0.32558139534883723
aF0.37209302325581395
aF0.2647058823529412
aF0.40441176470588236
aF0.33088235294117646
aF0.3684210526315789
aF0.5789473684210527
aF0.05263157894736842
aF1.0
asg12
F0.6900314923828857
sg13
(lp20
F-0.5829330936425678
aF-0.033163067798945726
aF0.803480568340916
aF0.2154621594725823
aF-0.9370351611024825
aF1.013868775563098
aF0.28861898248745044
aF0.2759788594663361
aF-0.37257272168052313
aF-0.16152745086161055
aF0.5897219895567779
aF-0.3698094552493812
aF0.7870667872136766
aF-0.07367056897092635
aF-0.43561821735419004
aF0.15384331847741892
aF-0.002315580974299483
aF0.15794115635575703
aF0.26010216264937724
asg15
F-0.0004283693571783158
sba(iBPNN
BpnnNode
p21
(dp22
g8
(lp23
F0.17229840093528143
aF5.2521133474964605
aF-4.532768418401108
aF-4.658236724641739
aF7.922481760426613
aF-2.4034524905199457
aF-3.1487224179047093
aF-0.8731423114875325
aF4.7753951525266025
aF-1.4058492199804058
aF1.0781447490895824
aF1.214723545705567
aF-1.6289028555258191
aF0.08782606648007625
aF2.3983431773935076
aF-4.354501948505159
aF5.501695820645145
aF-0.3878173391549022
aF0.8520017584667862
asg10
(lp24
F0.40625
aF0.171875
aF0.421875
aF0.3076923076923077
aF0.23076923076923078
aF0.46153846153846156
aF0.3210227272727273
aF0.28125
aF0.3977272727272727
aF0.3023255813953488
aF0.32558139534883723
aF0.37209302325581395
aF0.2647058823529412
aF0.40441176470588236
aF0.33088235294117646
aF0.3684210526315789
aF0.5789473684210527
aF0.05263157894736842
aF1.0
asg12
F0.8983420999465329
sg13
(lp25
F0.17248917606664885
aF5.252194794445413
aF-4.5325723852365885
aF-4.658092088377074
aF7.922589118419799
aF-2.403236229532958
aF-3.1485716551416223
aF-0.873010508988134
aF4.7755808425089565
aF-1.4057071995022703
aF1.078297147558029
aF1.2148973820038247
aF-1.6287782737451808
aF0.08801448465437108
aF2.398498432683414
aF-4.354330460972119
aF5.501964585680435
aF-0.3877893364783912
aF0.8524700137116259
asg15
F0.0011443723168104143
sba(iBPNN
BpnnNode
p26
(dp27
g8
(lp28
F-0.9047253659019019
aF1.6125902552369376
aF-1.1544460958798453
aF1.9374822683746573
aF0.5027393161478901
aF-2.7554576089547225
aF-0.6155789755790125
aF0.8696652012064051
aF-0.5660549208308171
aF-1.6286188331587963
aF2.47962381615299
aF-1.1669695064349561
aF1.9324306331549719
aF-2.736379201593815
aF0.5093742375180104
aF0.775516729680872
aF-1.3801230829135316
aF0.36431433231546406
aF-0.31765137442657504
asg10
(lp29
F0.40625
aF0.171875
aF0.421875
aF0.3076923076923077
aF0.23076923076923078
aF0.46153846153846156
aF0.3210227272727273
aF0.28125
aF0.3977272727272727
aF0.3023255813953488
aF0.32558139534883723
aF0.37209302325581395
aF0.2647058823529412
aF0.40441176470588236
aF0.33088235294117646
aF0.3684210526315789
aF0.5789473684210527
aF0.05263157894736842
aF1.0
asg12
F0.0645837853647654
sg13
(lp30
F-0.9047589194660299
aF1.6125756863290859
aF-1.1544803356677844
aF1.9374567964105054
aF0.5027202211332464
aF-2.755495404235846
aF-0.6156054981339513
aF0.8696419546240495
aF-0.5660875139534416
aF-1.6286438622264099
aF2.479597028741732
aF-1.1670000522160033
aF1.932408622295812
aF-2.7364122487707974
aF0.5093469332942339
aF0.7754868638349615
aF-1.3801699380278085
aF0.3643086910157326
aF-0.3177337366864939
asg15
F-0.00019683992338205702
sba(iBPNN
BpnnNode
p31
(dp32
g8
(lp33
F-4.872854642317629
aF6.255187250367787
aF-1.6224976063511474
aF-1.194957308762896
aF5.934115169261798
aF-4.9586205142665545
aF3.511373513435144
aF3.294311275242124
aF-6.904458392395731
aF2.573870847254364
aF1.7789855575727491
aF-4.518312452407594
aF5.191276861353742
aF0.858773411418733
aF-6.218658177169249
aF2.3633283093452553
aF1.9302875624499565
aF-4.459212082602624
aF-0.08117776050436612
asg10
(lp34
F0.40625
aF0.171875
aF0.421875
aF0.3076923076923077
aF0.23076923076923078
aF0.46153846153846156
aF0.3210227272727273
aF0.28125
aF0.3977272727272727
aF0.3023255813953488
aF0.32558139534883723
aF0.37209302325581395
aF0.2647058823529412
aF0.40441176470588236
aF0.33088235294117646
aF0.3684210526315789
aF0.5789473684210527
aF0.05263157894736842
aF1.0
asg12
F0.07195276752609028
sg13
(lp35
F-4.873004978389176
aF6.255122795937198
aF-1.6226530092801708
aF-1.1950711386070938
aF5.934028769072359
aF-4.958790477664078
aF3.5112546463398218
aF3.2942069656409014
aF-6.904605409130346
aF2.5737587280568373
aF1.778865054773551
aF-4.518450023842028
aF5.191178784431214
aF0.8586240210293538
aF-6.218780903288501
aF2.3631927408141156
aF1.9300744972464747
aF-4.459233642299162
aF-0.08154795393552529
asg15
F-0.0009127842208834167
sba(iBPNN
BpnnNode
p36
(dp37
g8
(lp38
F4.540848426315736
aF-0.14893273107307656
aF-4.821368043498753
aF-1.362331018611362
aF0.09010480662610958
aF0.7804731491524305
aF-5.336888913250833
aF-1.965935482938081
aF6.892796135178932
aF1.4456013505211074
aF-3.2814050177759597
aF1.4080858846649051
aF-7.775552072788259
aF-1.4499202908239215
aF8.623547781573185
aF-5.927577131495766
aF0.9326418003877258
aF4.564736027978598
aF-0.44279114347779214
asg10
(lp39
F0.40625
aF0.171875
aF0.421875
aF0.3076923076923077
aF0.23076923076923078
aF0.46153846153846156
aF0.3210227272727273
aF0.28125
aF0.3977272727272727
aF0.3023255813953488
aF0.32558139534883723
aF0.37209302325581395
aF0.2647058823529412
aF0.40441176470588236
aF0.33088235294117646
aF0.3684210526315789
aF0.5789473684210527
aF0.05263157894736842
aF1.0
asg12
F0.17936436624585203
sg13
(lp40
F4.541122407948939
aF-0.14881553082290117
aF-4.821086568250237
aF-1.362122995625923
aF0.09025941032792582
aF0.7807831795970689
aF-5.336672523432196
aF-1.965745976146114
aF6.893062895700222
aF1.445805344445772
aF-3.2811861911508253
aF1.408335721247
aF-7.7753727887474975
aF-1.4496494300696972
aF8.623770293910093
aF-5.927331332820139
aF0.933027560999655
aF4.564777125822936
aF-0.4421184863458985
asg15
F0.001638925419979942
sbaa(lp41
(iBPNN
BpnnNode
p42
(dp43
g8
(lp44
F16.4713444550714
aF-2.1345261059910507
aF-1.8392512341297849
aF-3.677290767922231
aF-2.337219554664075
aF-0.15480027978895206
aF-3.554977454719944
asg10
(lp45
F0.15261116336767155
aF0.6900314923828857
aF0.8983420999465329
aF0.0645837853647654
aF0.07195276752609028
aF0.17936436624585203
aF1.0
asg12
F0.009952250950297071
sg13
(lp46
F16.471338458362425
aF-2.134553306824017
aF-1.8392865933487625
aF-3.6772933548751676
aF-2.3372223933329876
aF-0.15480746918721267
aF-3.5550168735057874
asg15
F-9.794298867274735e-05
sba(iBPNN
BpnnNode
p47
(dp48
g8
(lp49
F-16.639711213462764
aF1.8863742340523397
aF-8.47025186686719
aF3.4797820751596995
aF8.998924379334218
aF-10.735266491088552
aF6.0735417303519
asg10
(lp50
F0.15261116336767155
aF0.6900314923828857
aF0.8983420999465329
aF0.0645837853647654
aF0.07195276752609028
aF0.17936436624585203
aF1.0
asg12
F0.021308354559171305
sg13
(lp51
F-16.639738800931735
aF1.8862453979403115
aF-8.470418732851355
aF3.4797692781883036
aF8.998910992900248
aF-10.735302546741584
aF6.073355041037599
asg15
F-0.0004500331845823208
sba(iBPNN
BpnnNode
p52
(dp53
g8
(lp54
F-5.4163048505869185
aF-1.650453159278037
aF10.319019543840596
aF-2.4837299201722156
aF-11.905763148560894
aF7.631215257742306
aF-4.146356338415878
asg10
(lp55
F0.15261116336767155
aF0.6900314923828857
aF0.8983420999465329
aF0.0645837853647654
aF0.07195276752609028
aF0.17936436624585203
aF1.0
asg12
F0.9709902807332228
sg13
(lp56
F-5.416254395369788
aF-1.6502244077867185
aF10.319317355679004
aF-2.483708249041238
aF-11.905739021323848
aF7.6312753896448955
aF-4.146024711759607
asg15
F0.0008260353512834323
sbaasb.