(iBPNN
Bpnn
p0
(dp1
S'input_num'
p2
I18
sS'bpnn'
p3
(lp4
(lp5
(iBPNN
BpnnNode
p6
(dp7
S'old_weight'
p8
(lp9
F-1.7391400696527906
aF0.33551315847496654
aF-0.6533013909325067
aF2.2660543758177814
aF-3.137723020123253
aF-1.1071901063595804
aF2.457051588927977
aF-0.8568556062509741
aF-3.4676435718082224
aF-1.6695782907371144
aF1.6480095179171372
aF-1.9182799729530404
aF12.146489056355664
aF-3.5976974614370993
aF-10.614330277944754
aF16.463026529628692
aF-13.233168759068136
aF-5.170699323674346
aF-1.9689581163369279
asS'input'
p10
(lp11
F0.875
aF0.0
aF0.125
aF1.0
aF0.0
aF0.0
aF0.3930197268588771
aF0.251896813353566
aF0.3550834597875569
aF0.41284403669724773
aF0.28440366972477066
aF0.30275229357798167
aF0.39436619718309857
aF0.30985915492957744
aF0.29577464788732394
aF0.3157894736842105
aF0.3684210526315789
aF0.3157894736842105
aF1.0
asS'output'
p12
F0.03342786913392504
sS'weight'
p13
(lp14
F-1.739519389738801
aF0.3355130668556169
aF-0.6533555918200559
aF2.2656208715448902
aF-3.137723111634098
aF-1.1071901231687535
aF2.4568811752250768
aF-0.8569648352161278
aF-3.467797541733078
aF-1.6697572973723824
aF1.6478861911372138
aF-1.9184112521307584
aF12.146318067994708
aF-3.597831820095152
aF-10.614458543518655
aF16.462889587998937
aF-13.233328502724515
aF-5.170836250981123
aF-1.9693917289298373
asS'delta'
p15
F-0.001083760629807662
sba(iBPNN
BpnnNode
p16
(dp17
g8
(lp18
F-6.546140537239104
aF10.188686027277983
aF-4.3759969378736665
aF4.422658826497401
aF-8.61425337770998
aF3.5253033644023954
aF-29.238966905950747
aF10.795152095672009
aF17.730502885985413
aF12.78367045464747
aF-21.275064149823706
aF7.760404566431666
aF-0.22799314227343592
aF6.862421596180343
aF-7.323844023176773
aF-17.46532892448438
aF24.027727587537054
aF-7.315113258769673
aF-0.775846719195846
asg10
(lp19
F0.875
aF0.0
aF0.125
aF1.0
aF0.0
aF0.0
aF0.3930197268588771
aF0.251896813353566
aF0.3550834597875569
aF0.41284403669724773
aF0.28440366972477066
aF0.30275229357798167
aF0.39436619718309857
aF0.30985915492957744
aF0.29577464788732394
aF0.3157894736842105
aF0.3684210526315789
aF0.3157894736842105
aF1.0
asg12
F0.0667130594349549
sg13
(lp20
F-6.547638071437628
aF10.18859652992765
aF-4.3762854100661706
aF4.42097495263109
aF-8.614327060659384
aF3.5251854174767496
aF-29.239693582704664
aF10.794672597582782
aF17.729833557087193
aF12.782911363949237
aF-21.27560256886428
aF7.7598265724291124
aF-0.22869868183808392
aF6.861839023481347
aF-7.324431414654492
aF-17.46591913786461
aF24.027057038111735
aF-7.315727999705485
aF-0.7777222229372079
asg15
F-0.004209777720118763
sba(iBPNN
BpnnNode
p21
(dp22
g8
(lp23
F14.471024721086366
aF-12.914957657042482
aF-1.4902532055786804
aF-11.16992816619279
aF14.159734119323337
aF-2.829660352068248
aF8.5287284173863
aF-8.901144360791283
aF0.6041328586686822
aF3.200012016274811
aF4.899489344075579
aF-7.974053839143006
aF-9.070248456124792
aF-8.102956128772316
aF17.20847311761633
aF-10.452477212726865
aF-0.2570453919343458
aF10.8666686231248
aF0.08698176081764027
asg10
(lp24
F0.875
aF0.0
aF0.125
aF1.0
aF0.0
aF0.0
aF0.3930197268588771
aF0.251896813353566
aF0.3550834597875569
aF0.41284403669724773
aF0.28440366972477066
aF0.30275229357798167
aF0.39436619718309857
aF0.30985915492957744
aF0.29577464788732394
aF0.3157894736842105
aF0.3684210526315789
aF0.3157894736842105
aF1.0
asg12
F0.888476767068915
sg13
(lp25
F14.475024642545819
aF-12.914706985145136
aF-1.4896783527297117
aF-11.16536220464225
aF14.159984758980665
aF-2.8296515070703463
aF8.530614241399011
aF-8.899919358837904
aF0.6058474789083598
aF3.2019831468662745
aF4.90088002968249
aF-7.972590209135615
aF-9.068380497947697
aF-8.101457424433189
aF17.209931901305872
aF-10.450926460186862
aF-0.2552815495326699
aF10.868179474388889
aF0.09180720702340749
asg15
F0.011414924338297388
sbaasb.