(iBPNN
Bpnn
p0
(dp1
S'input_num'
p2
I18
sS'bpnn'
p3
(lp4
(lp5
(iBPNN
BpnnNode
p6
(dp7
S'old_weight'
p8
(lp9
F-0.04482033587089297
aF-0.39465620086885034
aF0.5898660076146893
aF-1.7400699591095519
aF1.7317258032438518
aF0.23151707455025805
aF-0.7838264077933726
aF0.3295680009470507
aF0.5598824894221474
aF-0.2671059470353024
aF0.8328881389817968
aF-0.48645367013736457
aF0.4170878845188375
aF0.6059978337416143
aF-0.8272479223993129
aF-0.6911930124827926
aF1.1601596801249023
aF-0.3727005476398972
aF0.15961121362346298
asS'input'
p10
(lp11
F0.2
aF0.3
aF0.5
aF0.0
aF0.0
aF1.0
aF0.3210227272727273
aF0.28125
aF0.3977272727272727
aF0.3023255813953488
aF0.32558139534883723
aF0.37209302325581395
aF0.2647058823529412
aF0.40441176470588236
aF0.33088235294117646
aF0.3684210526315789
aF0.5789473684210527
aF0.05263157894736842
aF1.0
asS'output'
p12
F0.7523458740645736
sS'weight'
p13
(lp14
F-0.04481278217998185
aF-0.3946477126374878
aF0.5898856218468681
aF-1.7400699591093627
aF1.7317227066936285
aF0.23155582725474463
aF-0.7838147099783714
aF0.32957789560779577
aF0.5598965531008535
aF-0.2670951303959394
aF0.8328998169069063
aF-0.4864405085473845
aF0.4170976659315258
aF0.6060120060421708
aF-0.8272362199581051
aF-0.6911800617450009
aF1.160180088254122
aF-0.3726982503524561
aF0.15964686977791545
asS'delta'
p15
F8.678125962753923e-05
sba(iBPNN
BpnnNode
p16
(dp17
g8
(lp18
F1.5512426245381827
aF1.2600997268525833
aF-2.095490671384842
aF1.138952601924037
aF-0.22614267144919636
aF-0.25598597699999204
aF5.209668282620757
aF2.7597235927838857
aF-7.418014025309241
aF3.0983355286678127
aF-1.5838491165812008
aF-0.8856640862438447
aF9.096319903315502
aF0.7933886964679422
aF-9.185984183653375
aF5.0812016240381475
aF-3.38652862700586
aF-0.990341172015073
aF0.5700848740382186
asg10
(lp19
F0.2
aF0.3
aF0.5
aF0.0
aF0.0
aF1.0
aF0.3210227272727273
aF0.28125
aF0.3977272727272727
aF0.3023255813953488
aF0.32558139534883723
aF0.37209302325581395
aF0.2647058823529412
aF0.40441176470588236
aF0.33088235294117646
aF0.3684210526315789
aF0.5789473684210527
aF0.05263157894736842
aF1.0
asg12
F0.2872297491036484
sg13
(lp20
F1.551153047517586
aF1.2599530260659417
aF-2.0957146288343838
aF1.138952601924032
aF-0.2261755621116067
aF-0.2564133215943572
aF5.209520666241327
aF2.7595924948685906
aF-7.418195546271297
aF3.098194452389992
aF-1.5839981686681208
aF-0.8858341931358843
aF9.096199328243136
aF0.7932047159672599
aF-9.186139863337107
aF5.081035871570794
aF-3.3867872352543507
aF-0.9903770465560094
aF0.5696246387814381
asg15
F-0.0010527887454964157
sba(iBPNN
BpnnNode
p21
(dp22
g8
(lp23
F1.2690262583731724
aF-0.10134881594747294
aF-2.181553067083663
aF-1.9523389078124023
aF2.488712333161573
aF-1.8252136668062686
aF-3.939611552047995
aF-0.8399343695151481
aF3.7425274165015594
aF1.0891328433110523
aF0.5921623620785543
aF-2.6727789297610847
aF-6.730799865097617
aF-0.10354082395677117
aF5.856175815025951
aF-1.4860687651454505
aF-0.1526354440244038
aF0.5468000383246774
aF-1.135305251503704
asg10
(lp24
F0.2
aF0.3
aF0.5
aF0.0
aF0.0
aF1.0
aF0.3210227272727273
aF0.28125
aF0.3977272727272727
aF0.3023255813953488
aF0.32558139534883723
aF0.37209302325581395
aF0.2647058823529412
aF0.40441176470588236
aF0.33088235294117646
aF0.3684210526315789
aF0.5789473684210527
aF0.05263157894736842
aF1.0
asg12
F0.008117593418696062
sg13
(lp25
F1.2690330918838022
aF-0.10132144634079371
aF-2.1815376663115997
aF-1.952338907812398
aF2.488751403890357
aF-1.8252031336456844
aF-3.9395958600223486
aF-0.8399186595780412
aF3.7425456184281787
aF1.0891498462353082
aF0.5921776640991244
aF-2.6727616308165385
aF-6.730788856266775
aF-0.10352305709338666
aF5.856196643221097
aF-1.4860538409002533
aF-0.1526145569045083
aF0.5468138308489571
aF-1.1352556476143318
asg15
F2.5941072379506466e-05
sba(iBPNN
BpnnNode
p26
(dp27
g8
(lp28
F1.3483740017510304
aF-0.3265313187203154
aF-2.3721407506564782
aF0.06983634159717145
aF-0.14757938595126396
aF-1.3130716181304773
aF2.771222785164605
aF-4.111430331193316
aF-0.07055996003471587
aF3.936247088297171
aF-4.724160065336395
aF-0.7051387873797078
aF4.476134019734655
aF-3.184622719310191
aF-2.798762532065614
aF9.044367815854091
aF2.0544311728609985
aF-12.62349868731042
aF-1.4564322101285199
asg10
(lp29
F0.2
aF0.3
aF0.5
aF0.0
aF0.0
aF1.0
aF0.3210227272727273
aF0.28125
aF0.3977272727272727
aF0.3023255813953488
aF0.32558139534883723
aF0.37209302325581395
aF0.2647058823529412
aF0.40441176470588236
aF0.33088235294117646
aF0.3684210526315789
aF0.5789473684210527
aF0.05263157894736842
aF1.0
asg12
F0.13460443455084192
sg13
(lp30
F1.348383819866033
aF-0.32651577180976815
aF-2.3721163236638287
aF0.06983634159684832
aF-0.14757754770738876
aF-1.3130236643558302
aF2.771238753770529
aF-4.111416244540738
aF-0.07054022327501816
aF3.936262225639211
aF-4.724143896717984
aF-0.7051203013219596
aF4.476147098135176
aF-3.1846026889568164
aF-2.79874584880131
aF9.044386012192854
aF2.054459644383972
aF-12.623495563153956
aF-1.4563824181103207
asg15
F0.0001199870153288532
sba(iBPNN
BpnnNode
p31
(dp32
g8
(lp33
F-8.07022670698547
aF1.9644214878818733
aF4.513459953725165
aF-0.7660439402443779
aF-0.4386261773217179
aF-0.3345310696005969
aF4.531176427256771
aF-0.24202830394869246
aF-5.724022262341483
aF1.2238392262183753
aF-4.413215511457753
aF1.7929322864266155
aF0.9329232284855501
aF3.2858346977892365
aF-5.658151362269866
aF2.85700829186486
aF-1.8530175132952003
aF-2.3997367486499104
aF-1.5160613820261741
asg10
(lp34
F0.2
aF0.3
aF0.5
aF0.0
aF0.0
aF1.0
aF0.3210227272727273
aF0.28125
aF0.3977272727272727
aF0.3023255813953488
aF0.32558139534883723
aF0.37209302325581395
aF0.2647058823529412
aF0.40441176470588236
aF0.33088235294117646
aF0.3684210526315789
aF0.5789473684210527
aF0.05263157894736842
aF1.0
asg12
F0.08692623791267887
sg13
(lp35
F-8.07025094161177
aF1.9643853157583913
aF4.5133986758720175
aF-0.766043940244386
aF-0.4386279157359235
aF-0.33465101578931344
aF4.531137280714828
aF-0.24206265712521266
aF-5.724070447225951
aF1.2238021771526542
aF-4.413255091262585
aF1.7928872306942396
aF0.932890921786927
aF3.2857857443041087
aF-5.658191786689045
aF2.8569640301249875
aF-1.8530870153960561
aF-2.399744669412113
aF-1.5161830666291045
asg15
F-0.00029285864286006635
sba(iBPNN
BpnnNode
p36
(dp37
g8
(lp38
F-9.989711325654502
aF0.4215801419750219
aF8.022459256085437
aF-1.0941494893912413
aF-1.6863899455379332
aF1.2115270246683651
aF-2.922785568769662
aF-5.553044467915849
aF6.999959721030351
aF-5.424314906615571
aF0.9584874304041016
aF2.9050070325830615
aF-6.317621381869908
aF-2.57521252469258
aF7.360712718504995
aF0.19515787817221422
aF-2.9454674500491893
aF1.197943532038419
aF-1.5413702969265506
asg10
(lp39
F0.2
aF0.3
aF0.5
aF0.0
aF0.0
aF1.0
aF0.3210227272727273
aF0.28125
aF0.3977272727272727
aF0.3023255813953488
aF0.32558139534883723
aF0.37209302325581395
aF0.2647058823529412
aF0.40441176470588236
aF0.33088235294117646
aF0.3684210526315789
aF0.5789473684210527
aF0.05263157894736842
aF1.0
asg12
F0.5001059085602739
sg13
(lp40
F-9.989610430131203
aF0.4217411931374979
aF8.022711469612704
aF-1.0941494893912413
aF-1.6863670516854579
aF1.2120182910289332
aF-2.9226208134864615
aF-5.552898673489806
aF7.000163331534151
aF-5.424158198868158
aF0.9586542855708253
aF2.9051976298819677
aF-6.317486219266293
aF-2.5750056585202614
aF7.360884849942105
aF0.19534487190912606
aF-2.9451746503380996
aF1.1979778988034608
aF-1.5408561367135072
asg15
F0.0012244673564718051
sbaa(lp41
(iBPNN
BpnnNode
p42
(dp43
g8
(lp44
F-4.5598006316602495
aF2.877473322401425
aF-4.85202485995593
aF10.837718336631976
aF8.94261824022689
aF5.035588262122741
aF-7.306069205702877
asg10
(lp45
F0.7523458740645736
aF0.2872297491036484
aF0.008117593418696062
aF0.13460443455084192
aF0.08692623791267887
aF0.5001059085602739
aF1.0
asg12
F0.005513326677675358
sg13
(lp46
F-4.559812722559381
aF2.8774689317720985
aF-4.852024985590733
aF10.837716709163235
aF8.942616984265701
aF5.035578549796803
aF-7.306085495770363
asg15
F-3.0157572297612328e-05
sba(iBPNN
BpnnNode
p47
(dp48
g8
(lp49
F1.2075848290737101
aF6.944903740881536
aF-9.140121997211498
aF-15.706862825884272
aF1.5103527679773376
aF-14.130917601885155
aF1.6752057779594949
asg10
(lp50
F0.7523458740645736
aF0.2872297491036484
aF0.008117593418696062
aF0.13460443455084192
aF0.08692623791267887
aF0.5001059085602739
aF1.0
asg12
F0.010501358873513387
sg13
(lp51
F1.2075303955162913
aF6.944884821875404
aF-9.140140518164324
aF-15.70686893415096
aF1.5103480616761003
aF-14.130941973030215
aF1.675137093007484
asg15
F-0.00011127437335161954
sba(iBPNN
BpnnNode
p52
(dp53
g8
(lp54
F1.2564263073337127
aF-11.622050531159578
aF5.592108369048291
aF-1.061264448580263
aF-8.828905955685554
aF9.44468910624461
aF2.4677598421225677
asg10
(lp55
F0.7523458740645736
aF0.2872297491036484
aF0.008117593418696062
aF0.13460443455084192
aF0.08692623791267887
aF0.5001059085602739
aF1.0
asg12
F0.980801551823998
sg13
(lp56
F1.256538876240147
aF-11.62200740070554
aF5.592110357775301
aF-1.0612446244402378
aF-8.828892941625577
aF9.44476358140463
aF2.467909257116598
asg15
F0.00036817775668953825
sbaasb.