(iBPNN
Bpnn
p0
(dp1
S'input_num'
p2
I18
sS'bpnn'
p3
(lp4
(lp5
(iBPNN
BpnnNode
p6
(dp7
S'old_weight'
p8
(lp9
F-0.3893359243704011
aF-2.547860329109483
aF1.3537204635439217
aF1.3003875504050226
aF-3.006962931552891
aF0.17116368248616023
aF7.127482159553924
aF1.0452067041890944
aF-9.760301710310134
aF11.376483780854064
aF-2.2337416209349827
aF-10.667167577958368
aF9.518275375699124
aF-1.0732109460668506
aF-9.962999424610642
aF22.009867075530813
aF-10.69154001460138
aF-13.00598076863205
aF-1.5051892138647451
asS'input'
p10
(lp11
F0.2
aF0.26666666666666666
aF0.5333333333333333
aF0.0
aF0.0
aF1.0
aF0.3433734939759036
aF0.27710843373493976
aF0.3795180722891566
aF0.3488372093023256
aF0.16279069767441862
aF0.4883720930232558
aF0.32407407407407407
aF0.3611111111111111
aF0.3148148148148148
aF0.3333333333333333
aF0.3333333333333333
aF0.3333333333333333
aF1.0
asS'output'
p12
F0.007080872038632648
sS'weight'
p13
(lp14
F-0.38933997092784434
aF-2.5478770903453434
aF1.3537062613551838
aF1.300387486026669
aF-3.006977984912223
aF0.17114379024180393
aF7.127470346733388
aF1.0451960086870598
aF-9.760314211969606
aF11.376472264980285
aF-2.2337497066199137
aF-10.6671829863817
aF9.51826271330528
aF-1.0732237723103615
aF-9.963008945955329
aF22.009854223818614
aF-10.691553283907934
aF-13.005989657595338
aF-1.5052242238467868
asS'delta'
p15
F-4.9795129689551504e-05
sba(iBPNN
BpnnNode
p16
(dp17
g8
(lp18
F-18.560141452865928
aF3.6167849072174025
aF12.356756930259325
aF4.384254167283966
aF-3.045911298860327
aF-3.8708956898838256
aF7.273568703448677
aF-3.4677867908723727
aF-6.341854502940681
aF-4.731067479143785
aF-23.498620507850774
aF25.75653431481949
aF2.168503771982204
aF-4.615096688299492
aF-0.13314258622376657
aF-30.868313287370558
aF44.3625080069577
aF-16.155203463152258
aF-2.4875206946470563
asg10
(lp19
F0.2
aF0.26666666666666666
aF0.5333333333333333
aF0.0
aF0.0
aF1.0
aF0.3433734939759036
aF0.27710843373493976
aF0.3795180722891566
aF0.3488372093023256
aF0.16279069767441862
aF0.4883720930232558
aF0.32407407407407407
aF0.3611111111111111
aF0.3148148148148148
aF0.3333333333333333
aF0.3333333333333333
aF0.3333333333333333
aF1.0
asg12
F0.8644434041512948
sg13
(lp20
F-18.55881247977849
aF3.619675980133757
aF12.3603807148676
aF4.38425416728413
aF-3.0447127542633585
aF-3.8642504038688883
aF7.2762545240918115
aF-3.4654934056232274
aF-6.338989878220891
aF-4.728387162335888
aF-23.497176474080586
aF25.760253794853476
aF2.1711451184198327
aF-4.612314967562256
aF-0.130721822786563
aF-30.865593684919062
aF44.36522772802912
aF-16.152798956063105
aF-2.4796768640349867
asg15
F0.016615672671886267
sba(iBPNN
BpnnNode
p21
(dp22
g8
(lp23
F-2.563775166680975
aF10.976489440852612
aF-9.618799531389909
aF-3.5480620994067023
aF-2.35901069780273
aF4.785783291514552
aF-4.386320921339893
aF-4.270172909866313
aF7.578393201182737
aF-4.173687832012217
aF10.075851235691678
aF-7.027396977398958
aF-7.220681157745536
aF-0.7109382471197101
aF6.891802243199656
aF-17.33619792409126
aF-13.765286464420189
aF30.08194994222854
aF-1.0798554721081581
asg10
(lp24
F0.2
aF0.26666666666666666
aF0.5333333333333333
aF0.0
aF0.0
aF1.0
aF0.3433734939759036
aF0.27710843373493976
aF0.3795180722891566
aF0.3488372093023256
aF0.16279069767441862
aF0.4883720930232558
aF0.32407407407407407
aF0.3611111111111111
aF0.3148148148148148
aF0.3333333333333333
aF0.3333333333333333
aF0.3333333333333333
aF1.0
asg12
F0.055089525296314584
sg13
(lp25
F-2.564006562198121
aF10.976175476308873
aF-9.61941642573792
aF-3.548062223338297
aF-2.3590164703523038
aF4.784626933586822
aF-4.386719852386849
aF-4.270495500120906
aF7.577952468075389
aF-4.174092751255038
aF10.075661278894904
aF-7.02796435576826
aF-7.221058360906032
aF-0.7113577864923283
aF6.891436731323873
aF-17.3365858197787
aF-13.765674377495126
aF30.08156349658202
aF-1.0810177265170566
asg15
F-0.002890889334851481
sbaasb.